; Function Attrs: mustprogress uwtable
define void @_ZNK6casadi2MX3getERS0_bRKNS_5SliceES4_(ptr noundef nonnull align 8 dereferenceable(8) %0, ptr noundef nonnull align 8 dereferenceable(8) %1, i1 noundef zeroext %2, ptr noundef nonnull align 8 dereferenceable(24) %3, ptr noundef nonnull align 8 dereferenceable(24) %4) local_unnamed_addr #3 align 2 personality ptr @__gxx_personality_v0 {
  %6 = alloca %"class.casadi::Matrix.38", align 8
  %7 = alloca %"class.std::vector", align 8
  %8 = alloca %"class.casadi::Matrix.38", align 8
  %9 = alloca %"class.std::vector", align 8
  %10 = tail call noundef ptr @_ZNK6casadi12SharedObjectptEv(ptr noundef nonnull align 8 dereferenceable(8) %0)
  %11 = getelementptr inbounds i8, ptr %10, i64 56
  %12 = tail call noundef i64 @_ZNK6casadi8Sparsity5size1Ev(ptr noundef nonnull align 8 dereferenceable(8) %11)
  call void @_ZNK6casadi5Slice3allExb(ptr dead_on_unwind nonnull writable sret(%"class.std::vector") align 8 %7, ptr noundef nonnull align 8 dereferenceable(24) %3, i64 noundef %12, i1 noundef zeroext %2)
  invoke void @_ZN6casadi6MatrixIxEC1ERKSt6vectorIxSaIxEE(ptr noundef nonnull align 8 dereferenceable(40) %6, ptr noundef nonnull align 8 dereferenceable(24) %7)
          to label %13 unwind label %32

13:                                               ; preds = %5
  %14 = invoke noundef ptr @_ZNK6casadi12SharedObjectptEv(ptr noundef nonnull align 8 dereferenceable(8) %0)
          to label %.noexc unwind label %34

.noexc:                                           ; preds = %13
  %15 = getelementptr inbounds i8, ptr %14, i64 56
  %16 = invoke noundef i64 @_ZNK6casadi8Sparsity5size2Ev(ptr noundef nonnull align 8 dereferenceable(8) %15)
          to label %_ZNK6casadi13GenericMatrixINS_2MXEE5size2Ev.exit unwind label %34

_ZNK6casadi13GenericMatrixINS_2MXEE5size2Ev.exit: ; preds = %.noexc
  invoke void @_ZNK6casadi5Slice3allExb(ptr dead_on_unwind nonnull writable sret(%"class.std::vector") align 8 %9, ptr noundef nonnull align 8 dereferenceable(24) %4, i64 noundef %16, i1 noundef zeroext %2)
          to label %17 unwind label %34

17:                                               ; preds = %_ZNK6casadi13GenericMatrixINS_2MXEE5size2Ev.exit
  invoke void @_ZN6casadi6MatrixIxEC1ERKSt6vectorIxSaIxEE(ptr noundef nonnull align 8 dereferenceable(40) %8, ptr noundef nonnull align 8 dereferenceable(24) %9)
          to label %18 unwind label %36

18:                                               ; preds = %17
  invoke void @_ZNK6casadi2MX3getERS0_bRKNS_6MatrixIxEES5_(ptr noundef nonnull align 8 dereferenceable(8) %0, ptr noundef nonnull align 8 dereferenceable(8) %1, i1 noundef zeroext %2, ptr noundef nonnull align 8 dereferenceable(40) %6, ptr noundef nonnull align 8 dereferenceable(40) %8)
          to label %19 unwind label %38

19:                                               ; preds = %18
  %20 = getelementptr inbounds i8, ptr %8, i64 16
  %21 = load ptr, ptr %20, align 8
  %.not.i.i.i.i = icmp eq ptr %21, null
  br i1 %.not.i.i.i.i, label %_ZN6casadi6MatrixIxED2Ev.exit, label %22

22:                                               ; preds = %19
  call void @_ZdlPv(ptr noundef nonnull %21) #30
  br label %_ZN6casadi6MatrixIxED2Ev.exit

_ZN6casadi6MatrixIxED2Ev.exit:                    ; preds = %19, %22
  %23 = getelementptr inbounds i8, ptr %8, i64 8
  call void @_ZN6casadi12SharedObjectD2Ev(ptr noundef nonnull align 8 dereferenceable(8) %23) #27
  %24 = load ptr, ptr %9, align 8
  %.not.i.i.i = icmp eq ptr %24, null
  br i1 %.not.i.i.i, label %_ZNSt6vectorIxSaIxEED2Ev.exit, label %25

25:                                               ; preds = %_ZN6casadi6MatrixIxED2Ev.exit
  call void @_ZdlPv(ptr noundef nonnull %24) #30
  br label %_ZNSt6vectorIxSaIxEED2Ev.exit

_ZNSt6vectorIxSaIxEED2Ev.exit:                    ; preds = %_ZN6casadi6MatrixIxED2Ev.exit, %25
  %26 = getelementptr inbounds i8, ptr %6, i64 16
  %27 = load ptr, ptr %26, align 8
  %.not.i.i.i.i15 = icmp eq ptr %27, null
  br i1 %.not.i.i.i.i15, label %_ZN6casadi6MatrixIxED2Ev.exit16, label %28

28:                                               ; preds = %_ZNSt6vectorIxSaIxEED2Ev.exit
  call void @_ZdlPv(ptr noundef nonnull %27) #30
  br label %_ZN6casadi6MatrixIxED2Ev.exit16

_ZN6casadi6MatrixIxED2Ev.exit16:                  ; preds = %_ZNSt6vectorIxSaIxEED2Ev.exit, %28
  %29 = getelementptr inbounds i8, ptr %6, i64 8
  call void @_ZN6casadi12SharedObjectD2Ev(ptr noundef nonnull align 8 dereferenceable(8) %29) #27
  %30 = load ptr, ptr %7, align 8
  %.not.i.i.i17 = icmp eq ptr %30, null
  br i1 %.not.i.i.i17, label %_ZNSt6vectorIxSaIxEED2Ev.exit18, label %31

31:                                               ; preds = %_ZN6casadi6MatrixIxED2Ev.exit16
  call void @_ZdlPv(ptr noundef nonnull %30) #30
  br label %_ZNSt6vectorIxSaIxEED2Ev.exit18

_ZNSt6vectorIxSaIxEED2Ev.exit18:                  ; preds = %_ZN6casadi6MatrixIxED2Ev.exit16, %31
  ret void

32:                                               ; preds = %5
  %33 = landingpad { ptr, i32 }
          cleanup
  br label %43

34:                                               ; preds = %.noexc, %13, %_ZNK6casadi13GenericMatrixINS_2MXEE5size2Ev.exit
  %35 = landingpad { ptr, i32 }
          cleanup
  br label %_ZNSt6vectorIxSaIxEED2Ev.exit20

36:                                               ; preds = %17
  %37 = landingpad { ptr, i32 }
          cleanup
  br label %40

38:                                               ; preds = %18
  %39 = landingpad { ptr, i32 }
          cleanup
  call void @_ZN6casadi6MatrixIxED2Ev(ptr noundef nonnull align 8 dereferenceable(40) %8) #27
  br label %40

40:                                               ; preds = %38, %36
  %.pn = phi { ptr, i32 } [ %39, %38 ], [ %37, %36 ]
  %41 = load ptr, ptr %9, align 8
  %.not.i.i.i19 = icmp eq ptr %41, null
  br i1 %.not.i.i.i19, label %_ZNSt6vectorIxSaIxEED2Ev.exit20, label %42

42:                                               ; preds = %40
  call void @_ZdlPv(ptr noundef nonnull %41) #30
  br label %_ZNSt6vectorIxSaIxEED2Ev.exit20

_ZNSt6vectorIxSaIxEED2Ev.exit20:                  ; preds = %42, %40, %34
  %.pn.pn = phi { ptr, i32 } [ %35, %34 ], [ %.pn, %40 ], [ %.pn, %42 ]
  call void @_ZN6casadi6MatrixIxED2Ev(ptr noundef nonnull align 8 dereferenceable(40) %6) #27
  br label %43

43:                                               ; preds = %_ZNSt6vectorIxSaIxEED2Ev.exit20, %32
  %.pn.pn.pn = phi { ptr, i32 } [ %.pn.pn, %_ZNSt6vectorIxSaIxEED2Ev.exit20 ], [ %33, %32 ]
  %44 = load ptr, ptr %7, align 8
  %.not.i.i.i21 = icmp eq ptr %44, null
  br i1 %.not.i.i.i21, label %_ZNSt6vectorIxSaIxEED2Ev.exit22, label %45

45:                                               ; preds = %43
  call void @_ZdlPv(ptr noundef nonnull %44) #30
  br label %_ZNSt6vectorIxSaIxEED2Ev.exit22

_ZNSt6vectorIxSaIxEED2Ev.exit22:                  ; preds = %43, %45
  resume { ptr, i32 } %.pn.pn.pn
}